; Function Attrs: nounwind uwtable
define internal fastcc ptr @new_dict(ptr noundef %0, ptr noundef %1, i64 noundef %2, i32 noundef range(i32 0, 2) %3) unnamed_addr #0 {
  %5 = tail call align 8 ptr @llvm.threadlocal.address.p0(ptr align 8 @_Py_tss_tstate)
  %6 = load ptr, ptr %5, align 8, !tbaa !4
  %7 = getelementptr inbounds nuw i8, ptr %6, i64 16
  %8 = load ptr, ptr %7, align 8, !tbaa !9
  %9 = getelementptr inbounds nuw i8, ptr %8, i64 11432
  %10 = load ptr, ptr %9, align 8, !tbaa !66
  %.not.i.i = icmp eq ptr %10, null
  br i1 %.not.i.i, label %15, label %_PyFreeList_Pop.exit

_PyFreeList_Pop.exit:                             ; preds = %4
  %11 = load ptr, ptr %10, align 8, !tbaa !67
  store ptr %11, ptr %9, align 8, !tbaa !66
  %12 = getelementptr inbounds nuw i8, ptr %8, i64 11440
  %13 = load i64, ptr %12, align 8, !tbaa !68
  %14 = add i64 %13, -1
  store i64 %14, ptr %12, align 8, !tbaa !68
  tail call void @_Py_NewReference(ptr noundef nonnull %10) #23
  br label %20

15:                                               ; preds = %4
  %16 = tail call ptr @_PyObject_GC_New(ptr noundef nonnull @PyDict_Type) #23
  %17 = icmp eq ptr %16, null
  br i1 %17, label %18, label %20

18:                                               ; preds = %15
  tail call fastcc void @dictkeys_decref(ptr noundef %0)
  %.not = icmp eq i32 %3, 0
  br i1 %.not, label %47, label %19

19:                                               ; preds = %18
  tail call void @PyMem_Free(ptr noundef %1) #23
  br label %47

20:                                               ; preds = %_PyFreeList_Pop.exit, %15
  %.0 = phi ptr [ %16, %15 ], [ %10, %_PyFreeList_Pop.exit ]
  %21 = getelementptr inbounds nuw i8, ptr %.0, i64 32
  store ptr %0, ptr %21, align 8, !tbaa !36
  %22 = getelementptr inbounds nuw i8, ptr %.0, i64 40
  store ptr %1, ptr %22, align 8, !tbaa !40
  %23 = getelementptr inbounds nuw i8, ptr %.0, i64 16
  store i64 %2, ptr %23, align 8, !tbaa !43
  %24 = getelementptr inbounds nuw i8, ptr %.0, i64 24
  store i64 0, ptr %24, align 8, !tbaa !138
  %25 = getelementptr i8, ptr %.0, i64 -16
  %26 = load ptr, ptr %5, align 8, !tbaa !4
  %27 = getelementptr inbounds nuw i8, ptr %26, i64 16
  %28 = load ptr, ptr %27, align 8, !tbaa !9
  %29 = getelementptr inbounds nuw i8, ptr %28, i64 7424
  %30 = getelementptr inbounds nuw i8, ptr %28, i64 7432
  %31 = load i64, ptr %30, align 8, !tbaa !69
  %32 = inttoptr i64 %31 to ptr
  %33 = ptrtoint ptr %25 to i64
  %34 = load i64, ptr %32, align 8, !tbaa !71
  %35 = and i64 %34, 3
  %36 = or i64 %35, %33
  store i64 %36, ptr %32, align 8, !tbaa !71
  %37 = getelementptr i8, ptr %.0, i64 -8
  %38 = load i64, ptr %37, align 8, !tbaa !69
  %39 = and i64 %38, 3
  %40 = or i64 %39, %31
  store i64 %40, ptr %37, align 8, !tbaa !69
  %41 = getelementptr inbounds nuw i8, ptr %28, i64 7632
  %42 = load i32, ptr %41, align 8, !tbaa !72
  %43 = xor i32 %42, 1
  %44 = sext i32 %43 to i64
  %45 = ptrtoint ptr %29 to i64
  %46 = or i64 %44, %45
  store i64 %46, ptr %25, align 8, !tbaa !71
  store i64 %33, ptr %30, align 8, !tbaa !69
  br label %47

47:                                               ; preds = %18, %19, %20
  %.015 = phi ptr [ %.0, %20 ], [ null, %19 ], [ null, %18 ]
  ret ptr %.015
}